target datalayout = "e-m:e-p270:32:32-p271:32:32-p272:64:64-i64:64-i128:128-f80:128-n8:16:32:64-S128"
target triple = "x86_64-pc-linux-gnu"

%struct.Vector3 = type { float, float, float }
%struct.Color = type { i8, i8, i8, i8 }

; Function Attrs: nounwind uwtable
define void @DrawCube(<2 x float> %0, float %1, float noundef %2, float noundef %3, float noundef %4, i32 %5) #10 {
  %7 = alloca %struct.Vector3, align 4
  %8 = alloca { <2 x float>, float }, align 4
  %9 = alloca %struct.Color, align 1
  %10 = alloca float, align 4
  %11 = alloca float, align 4
  %12 = alloca float, align 4
  %13 = alloca float, align 4
  %14 = alloca float, align 4
  %15 = alloca float, align 4
  %16 = getelementptr inbounds nuw { <2 x float>, float }, ptr %8, i32 0, i32 0
  store <2 x float> %0, ptr %16, align 4
  %17 = getelementptr inbounds nuw { <2 x float>, float }, ptr %8, i32 0, i32 1
  store float %1, ptr %17, align 4
  call void @llvm.memcpy.p0.p0.i64(ptr align 4 %7, ptr align 4 %8, i64 12, i1 false)
  store i32 %5, ptr %9, align 1
  store float %2, ptr %10, align 4
  store float %3, ptr %11, align 4
  store float %4, ptr %12, align 4
  call void @llvm.lifetime.start.p0(i64 4, ptr %13) #16
  store float 0.000000e+00, ptr %13, align 4
  call void @llvm.lifetime.start.p0(i64 4, ptr %14) #16
  store float 0.000000e+00, ptr %14, align 4
  call void @llvm.lifetime.start.p0(i64 4, ptr %15) #16
  store float 0.000000e+00, ptr %15, align 4
  call void @rlPushMatrix()
  %18 = getelementptr inbounds nuw %struct.Vector3, ptr %7, i32 0, i32 0
  %19 = load float, ptr %18, align 4
  %20 = getelementptr inbounds nuw %struct.Vector3, ptr %7, i32 0, i32 1
  %21 = load float, ptr %20, align 4
  %22 = getelementptr inbounds nuw %struct.Vector3, ptr %7, i32 0, i32 2
  %23 = load float, ptr %22, align 4
  call void @rlTranslatef(float noundef %19, float noundef %21, float noundef %23)
  call void @rlBegin(i32 noundef 4)
  %24 = getelementptr inbounds nuw %struct.Color, ptr %9, i32 0, i32 0
  %25 = load i8, ptr %24, align 1
  %26 = getelementptr inbounds nuw %struct.Color, ptr %9, i32 0, i32 1
  %27 = load i8, ptr %26, align 1
  %28 = getelementptr inbounds nuw %struct.Color, ptr %9, i32 0, i32 2
  %29 = load i8, ptr %28, align 1
  %30 = getelementptr inbounds nuw %struct.Color, ptr %9, i32 0, i32 3
  %31 = load i8, ptr %30, align 1
  call void @rlColor4ub(i8 noundef zeroext %25, i8 noundef zeroext %27, i8 noundef zeroext %29, i8 noundef zeroext %31)
  call void @rlNormal3f(float noundef 0.000000e+00, float noundef 0.000000e+00, float noundef 1.000000e+00)
  %32 = load float, ptr %13, align 4
  %33 = load float, ptr %10, align 4
  %34 = fdiv float %33, 2.000000e+00
  %35 = fsub float %32, %34
  %36 = load float, ptr %14, align 4
  %37 = load float, ptr %11, align 4
  %38 = fdiv float %37, 2.000000e+00
  %39 = fsub float %36, %38
  %40 = load float, ptr %15, align 4
  %41 = load float, ptr %12, align 4
  %42 = fdiv float %41, 2.000000e+00
  %43 = fadd float %40, %42
  call void @rlVertex3f(float noundef %35, float noundef %39, float noundef %43)
  %44 = load float, ptr %13, align 4
  %45 = load float, ptr %10, align 4
  %46 = fdiv float %45, 2.000000e+00
  %47 = fadd float %44, %46
  %48 = load float, ptr %14, align 4
  %49 = load float, ptr %11, align 4
  %50 = fdiv float %49, 2.000000e+00
  %51 = fsub float %48, %50
  %52 = load float, ptr %15, align 4
  %53 = load float, ptr %12, align 4
  %54 = fdiv float %53, 2.000000e+00
  %55 = fadd float %52, %54
  call void @rlVertex3f(float noundef %47, float noundef %51, float noundef %55)
  %56 = load float, ptr %13, align 4
  %57 = load float, ptr %10, align 4
  %58 = fdiv float %57, 2.000000e+00
  %59 = fsub float %56, %58
  %60 = load float, ptr %14, align 4
  %61 = load float, ptr %11, align 4
  %62 = fdiv float %61, 2.000000e+00
  %63 = fadd float %60, %62
  %64 = load float, ptr %15, align 4
  %65 = load float, ptr %12, align 4
  %66 = fdiv float %65, 2.000000e+00
  %67 = fadd float %64, %66
  call void @rlVertex3f(float noundef %59, float noundef %63, float noundef %67)
  %68 = load float, ptr %13, align 4
  %69 = load float, ptr %10, align 4
  %70 = fdiv float %69, 2.000000e+00
  %71 = fadd float %68, %70
  %72 = load float, ptr %14, align 4
  %73 = load float, ptr %11, align 4
  %74 = fdiv float %73, 2.000000e+00
  %75 = fadd float %72, %74
  %76 = load float, ptr %15, align 4
  %77 = load float, ptr %12, align 4
  %78 = fdiv float %77, 2.000000e+00
  %79 = fadd float %76, %78
  call void @rlVertex3f(float noundef %71, float noundef %75, float noundef %79)
  %80 = load float, ptr %13, align 4
  %81 = load float, ptr %10, align 4
  %82 = fdiv float %81, 2.000000e+00
  %83 = fsub float %80, %82
  %84 = load float, ptr %14, align 4
  %85 = load float, ptr %11, align 4
  %86 = fdiv float %85, 2.000000e+00
  %87 = fadd float %84, %86
  %88 = load float, ptr %15, align 4
  %89 = load float, ptr %12, align 4
  %90 = fdiv float %89, 2.000000e+00
  %91 = fadd float %88, %90
  call void @rlVertex3f(float noundef %83, float noundef %87, float noundef %91)
  %92 = load float, ptr %13, align 4
  %93 = load float, ptr %10, align 4
  %94 = fdiv float %93, 2.000000e+00
  %95 = fadd float %92, %94
  %96 = load float, ptr %14, align 4
  %97 = load float, ptr %11, align 4
  %98 = fdiv float %97, 2.000000e+00
  %99 = fsub float %96, %98
  %100 = load float, ptr %15, align 4
  %101 = load float, ptr %12, align 4
  %102 = fdiv float %101, 2.000000e+00
  %103 = fadd float %100, %102
  call void @rlVertex3f(float noundef %95, float noundef %99, float noundef %103)
  call void @rlNormal3f(float noundef 0.000000e+00, float noundef 0.000000e+00, float noundef -1.000000e+00)
  %104 = load float, ptr %13, align 4
  %105 = load float, ptr %10, align 4
  %106 = fdiv float %105, 2.000000e+00
  %107 = fsub float %104, %106
  %108 = load float, ptr %14, align 4
  %109 = load float, ptr %11, align 4
  %110 = fdiv float %109, 2.000000e+00
  %111 = fsub float %108, %110
  %112 = load float, ptr %15, align 4
  %113 = load float, ptr %12, align 4
  %114 = fdiv float %113, 2.000000e+00
  %115 = fsub float %112, %114
  call void @rlVertex3f(float noundef %107, float noundef %111, float noundef %115)
  %116 = load float, ptr %13, align 4
  %117 = load float, ptr %10, align 4
  %118 = fdiv float %117, 2.000000e+00
  %119 = fsub float %116, %118
  %120 = load float, ptr %14, align 4
  %121 = load float, ptr %11, align 4
  %122 = fdiv float %121, 2.000000e+00
  %123 = fadd float %120, %122
  %124 = load float, ptr %15, align 4
  %125 = load float, ptr %12, align 4
  %126 = fdiv float %125, 2.000000e+00
  %127 = fsub float %124, %126
  call void @rlVertex3f(float noundef %119, float noundef %123, float noundef %127)
  %128 = load float, ptr %13, align 4
  %129 = load float, ptr %10, align 4
  %130 = fdiv float %129, 2.000000e+00
  %131 = fadd float %128, %130
  %132 = load float, ptr %14, align 4
  %133 = load float, ptr %11, align 4
  %134 = fdiv float %133, 2.000000e+00
  %135 = fsub float %132, %134
  %136 = load float, ptr %15, align 4
  %137 = load float, ptr %12, align 4
  %138 = fdiv float %137, 2.000000e+00
  %139 = fsub float %136, %138
  call void @rlVertex3f(float noundef %131, float noundef %135, float noundef %139)
  %140 = load float, ptr %13, align 4
  %141 = load float, ptr %10, align 4
  %142 = fdiv float %141, 2.000000e+00
  %143 = fadd float %140, %142
  %144 = load float, ptr %14, align 4
  %145 = load float, ptr %11, align 4
  %146 = fdiv float %145, 2.000000e+00
  %147 = fadd float %144, %146
  %148 = load float, ptr %15, align 4
  %149 = load float, ptr %12, align 4
  %150 = fdiv float %149, 2.000000e+00
  %151 = fsub float %148, %150
  call void @rlVertex3f(float noundef %143, float noundef %147, float noundef %151)
  %152 = load float, ptr %13, align 4
  %153 = load float, ptr %10, align 4
  %154 = fdiv float %153, 2.000000e+00
  %155 = fadd float %152, %154
  %156 = load float, ptr %14, align 4
  %157 = load float, ptr %11, align 4
  %158 = fdiv float %157, 2.000000e+00
  %159 = fsub float %156, %158
  %160 = load float, ptr %15, align 4
  %161 = load float, ptr %12, align 4
  %162 = fdiv float %161, 2.000000e+00
  %163 = fsub float %160, %162
  call void @rlVertex3f(float noundef %155, float noundef %159, float noundef %163)
  %164 = load float, ptr %13, align 4
  %165 = load float, ptr %10, align 4
  %166 = fdiv float %165, 2.000000e+00
  %167 = fsub float %164, %166
  %168 = load float, ptr %14, align 4
  %169 = load float, ptr %11, align 4
  %170 = fdiv float %169, 2.000000e+00
  %171 = fadd float %168, %170
  %172 = load float, ptr %15, align 4
  %173 = load float, ptr %12, align 4
  %174 = fdiv float %173, 2.000000e+00
  %175 = fsub float %172, %174
  call void @rlVertex3f(float noundef %167, float noundef %171, float noundef %175)
  call void @rlNormal3f(float noundef 0.000000e+00, float noundef 1.000000e+00, float noundef 0.000000e+00)
  %176 = load float, ptr %13, align 4
  %177 = load float, ptr %10, align 4
  %178 = fdiv float %177, 2.000000e+00
  %179 = fsub float %176, %178
  %180 = load float, ptr %14, align 4
  %181 = load float, ptr %11, align 4
  %182 = fdiv float %181, 2.000000e+00
  %183 = fadd float %180, %182
  %184 = load float, ptr %15, align 4
  %185 = load float, ptr %12, align 4
  %186 = fdiv float %185, 2.000000e+00
  %187 = fsub float %184, %186
  call void @rlVertex3f(float noundef %179, float noundef %183, float noundef %187)
  %188 = load float, ptr %13, align 4
  %189 = load float, ptr %10, align 4
  %190 = fdiv float %189, 2.000000e+00
  %191 = fsub float %188, %190
  %192 = load float, ptr %14, align 4
  %193 = load float, ptr %11, align 4
  %194 = fdiv float %193, 2.000000e+00
  %195 = fadd float %192, %194
  %196 = load float, ptr %15, align 4
  %197 = load float, ptr %12, align 4
  %198 = fdiv float %197, 2.000000e+00
  %199 = fadd float %196, %198
  call void @rlVertex3f(float noundef %191, float noundef %195, float noundef %199)
  %200 = load float, ptr %13, align 4
  %201 = load float, ptr %10, align 4
  %202 = fdiv float %201, 2.000000e+00
  %203 = fadd float %200, %202
  %204 = load float, ptr %14, align 4
  %205 = load float, ptr %11, align 4
  %206 = fdiv float %205, 2.000000e+00
  %207 = fadd float %204, %206
  %208 = load float, ptr %15, align 4
  %209 = load float, ptr %12, align 4
  %210 = fdiv float %209, 2.000000e+00
  %211 = fadd float %208, %210
  call void @rlVertex3f(float noundef %203, float noundef %207, float noundef %211)
  %212 = load float, ptr %13, align 4
  %213 = load float, ptr %10, align 4
  %214 = fdiv float %213, 2.000000e+00
  %215 = fadd float %212, %214
  %216 = load float, ptr %14, align 4
  %217 = load float, ptr %11, align 4
  %218 = fdiv float %217, 2.000000e+00
  %219 = fadd float %216, %218
  %220 = load float, ptr %15, align 4
  %221 = load float, ptr %12, align 4
  %222 = fdiv float %221, 2.000000e+00
  %223 = fsub float %220, %222
  call void @rlVertex3f(float noundef %215, float noundef %219, float noundef %223)
  %224 = load float, ptr %13, align 4
  %225 = load float, ptr %10, align 4
  %226 = fdiv float %225, 2.000000e+00
  %227 = fsub float %224, %226
  %228 = load float, ptr %14, align 4
  %229 = load float, ptr %11, align 4
  %230 = fdiv float %229, 2.000000e+00
  %231 = fadd float %228, %230
  %232 = load float, ptr %15, align 4
  %233 = load float, ptr %12, align 4
  %234 = fdiv float %233, 2.000000e+00
  %235 = fsub float %232, %234
  call void @rlVertex3f(float noundef %227, float noundef %231, float noundef %235)
  %236 = load float, ptr %13, align 4
  %237 = load float, ptr %10, align 4
  %238 = fdiv float %237, 2.000000e+00
  %239 = fadd float %236, %238
  %240 = load float, ptr %14, align 4
  %241 = load float, ptr %11, align 4
  %242 = fdiv float %241, 2.000000e+00
  %243 = fadd float %240, %242
  %244 = load float, ptr %15, align 4
  %245 = load float, ptr %12, align 4
  %246 = fdiv float %245, 2.000000e+00
  %247 = fadd float %244, %246
  call void @rlVertex3f(float noundef %239, float noundef %243, float noundef %247)
  call void @rlNormal3f(float noundef 0.000000e+00, float noundef -1.000000e+00, float noundef 0.000000e+00)
  %248 = load float, ptr %13, align 4
  %249 = load float, ptr %10, align 4
  %250 = fdiv float %249, 2.000000e+00
  %251 = fsub float %248, %250
  %252 = load float, ptr %14, align 4
  %253 = load float, ptr %11, align 4
  %254 = fdiv float %253, 2.000000e+00
  %255 = fsub float %252, %254
  %256 = load float, ptr %15, align 4
  %257 = load float, ptr %12, align 4
  %258 = fdiv float %257, 2.000000e+00
  %259 = fsub float %256, %258
  call void @rlVertex3f(float noundef %251, float noundef %255, float noundef %259)
  %260 = load float, ptr %13, align 4
  %261 = load float, ptr %10, align 4
  %262 = fdiv float %261, 2.000000e+00
  %263 = fadd float %260, %262
  %264 = load float, ptr %14, align 4
  %265 = load float, ptr %11, align 4
  %266 = fdiv float %265, 2.000000e+00
  %267 = fsub float %264, %266
  %268 = load float, ptr %15, align 4
  %269 = load float, ptr %12, align 4
  %270 = fdiv float %269, 2.000000e+00
  %271 = fadd float %268, %270
  call void @rlVertex3f(float noundef %263, float noundef %267, float noundef %271)
  %272 = load float, ptr %13, align 4
  %273 = load float, ptr %10, align 4
  %274 = fdiv float %273, 2.000000e+00
  %275 = fsub float %272, %274
  %276 = load float, ptr %14, align 4
  %277 = load float, ptr %11, align 4
  %278 = fdiv float %277, 2.000000e+00
  %279 = fsub float %276, %278
  %280 = load float, ptr %15, align 4
  %281 = load float, ptr %12, align 4
  %282 = fdiv float %281, 2.000000e+00
  %283 = fadd float %280, %282
  call void @rlVertex3f(float noundef %275, float noundef %279, float noundef %283)
  %284 = load float, ptr %13, align 4
  %285 = load float, ptr %10, align 4
  %286 = fdiv float %285, 2.000000e+00
  %287 = fadd float %284, %286
  %288 = load float, ptr %14, align 4
  %289 = load float, ptr %11, align 4
  %290 = fdiv float %289, 2.000000e+00
  %291 = fsub float %288, %290
  %292 = load float, ptr %15, align 4
  %293 = load float, ptr %12, align 4
  %294 = fdiv float %293, 2.000000e+00
  %295 = fsub float %292, %294
  call void @rlVertex3f(float noundef %287, float noundef %291, float noundef %295)
  %296 = load float, ptr %13, align 4
  %297 = load float, ptr %10, align 4
  %298 = fdiv float %297, 2.000000e+00
  %299 = fadd float %296, %298
  %300 = load float, ptr %14, align 4
  %301 = load float, ptr %11, align 4
  %302 = fdiv float %301, 2.000000e+00
  %303 = fsub float %300, %302
  %304 = load float, ptr %15, align 4
  %305 = load float, ptr %12, align 4
  %306 = fdiv float %305, 2.000000e+00
  %307 = fadd float %304, %306
  call void @rlVertex3f(float noundef %299, float noundef %303, float noundef %307)
  %308 = load float, ptr %13, align 4
  %309 = load float, ptr %10, align 4
  %310 = fdiv float %309, 2.000000e+00
  %311 = fsub float %308, %310
  %312 = load float, ptr %14, align 4
  %313 = load float, ptr %11, align 4
  %314 = fdiv float %313, 2.000000e+00
  %315 = fsub float %312, %314
  %316 = load float, ptr %15, align 4
  %317 = load float, ptr %12, align 4
  %318 = fdiv float %317, 2.000000e+00
  %319 = fsub float %316, %318
  call void @rlVertex3f(float noundef %311, float noundef %315, float noundef %319)
  call void @rlNormal3f(float noundef 1.000000e+00, float noundef 0.000000e+00, float noundef 0.000000e+00)
  %320 = load float, ptr %13, align 4
  %321 = load float, ptr %10, align 4
  %322 = fdiv float %321, 2.000000e+00
  %323 = fadd float %320, %322
  %324 = load float, ptr %14, align 4
  %325 = load float, ptr %11, align 4
  %326 = fdiv float %325, 2.000000e+00
  %327 = fsub float %324, %326
  %328 = load float, ptr %15, align 4
  %329 = load float, ptr %12, align 4
  %330 = fdiv float %329, 2.000000e+00
  %331 = fsub float %328, %330
  call void @rlVertex3f(float noundef %323, float noundef %327, float noundef %331)
  %332 = load float, ptr %13, align 4
  %333 = load float, ptr %10, align 4
  %334 = fdiv float %333, 2.000000e+00
  %335 = fadd float %332, %334
  %336 = load float, ptr %14, align 4
  %337 = load float, ptr %11, align 4
  %338 = fdiv float %337, 2.000000e+00
  %339 = fadd float %336, %338
  %340 = load float, ptr %15, align 4
  %341 = load float, ptr %12, align 4
  %342 = fdiv float %341, 2.000000e+00
  %343 = fsub float %340, %342
  call void @rlVertex3f(float noundef %335, float noundef %339, float noundef %343)
  %344 = load float, ptr %13, align 4
  %345 = load float, ptr %10, align 4
  %346 = fdiv float %345, 2.000000e+00
  %347 = fadd float %344, %346
  %348 = load float, ptr %14, align 4
  %349 = load float, ptr %11, align 4
  %350 = fdiv float %349, 2.000000e+00
  %351 = fadd float %348, %350
  %352 = load float, ptr %15, align 4
  %353 = load float, ptr %12, align 4
  %354 = fdiv float %353, 2.000000e+00
  %355 = fadd float %352, %354
  call void @rlVertex3f(float noundef %347, float noundef %351, float noundef %355)
  %356 = load float, ptr %13, align 4
  %357 = load float, ptr %10, align 4
  %358 = fdiv float %357, 2.000000e+00
  %359 = fadd float %356, %358
  %360 = load float, ptr %14, align 4
  %361 = load float, ptr %11, align 4
  %362 = fdiv float %361, 2.000000e+00
  %363 = fsub float %360, %362
  %364 = load float, ptr %15, align 4
  %365 = load float, ptr %12, align 4
  %366 = fdiv float %365, 2.000000e+00
  %367 = fadd float %364, %366
  call void @rlVertex3f(float noundef %359, float noundef %363, float noundef %367)
  %368 = load float, ptr %13, align 4
  %369 = load float, ptr %10, align 4
  %370 = fdiv float %369, 2.000000e+00
  %371 = fadd float %368, %370
  %372 = load float, ptr %14, align 4
  %373 = load float, ptr %11, align 4
  %374 = fdiv float %373, 2.000000e+00
  %375 = fsub float %372, %374
  %376 = load float, ptr %15, align 4
  %377 = load float, ptr %12, align 4
  %378 = fdiv float %377, 2.000000e+00
  %379 = fsub float %376, %378
  call void @rlVertex3f(float noundef %371, float noundef %375, float noundef %379)
  %380 = load float, ptr %13, align 4
  %381 = load float, ptr %10, align 4
  %382 = fdiv float %381, 2.000000e+00
  %383 = fadd float %380, %382
  %384 = load float, ptr %14, align 4
  %385 = load float, ptr %11, align 4
  %386 = fdiv float %385, 2.000000e+00
  %387 = fadd float %384, %386
  %388 = load float, ptr %15, align 4
  %389 = load float, ptr %12, align 4
  %390 = fdiv float %389, 2.000000e+00
  %391 = fadd float %388, %390
  call void @rlVertex3f(float noundef %383, float noundef %387, float noundef %391)
  call void @rlNormal3f(float noundef -1.000000e+00, float noundef 0.000000e+00, float noundef 0.000000e+00)
  %392 = load float, ptr %13, align 4
  %393 = load float, ptr %10, align 4
  %394 = fdiv float %393, 2.000000e+00
  %395 = fsub float %392, %394
  %396 = load float, ptr %14, align 4
  %397 = load float, ptr %11, align 4
  %398 = fdiv float %397, 2.000000e+00
  %399 = fsub float %396, %398
  %400 = load float, ptr %15, align 4
  %401 = load float, ptr %12, align 4
  %402 = fdiv float %401, 2.000000e+00
  %403 = fsub float %400, %402
  call void @rlVertex3f(float noundef %395, float noundef %399, float noundef %403)
  %404 = load float, ptr %13, align 4
  %405 = load float, ptr %10, align 4
  %406 = fdiv float %405, 2.000000e+00
  %407 = fsub float %404, %406
  %408 = load float, ptr %14, align 4
  %409 = load float, ptr %11, align 4
  %410 = fdiv float %409, 2.000000e+00
  %411 = fadd float %408, %410
  %412 = load float, ptr %15, align 4
  %413 = load float, ptr %12, align 4
  %414 = fdiv float %413, 2.000000e+00
  %415 = fadd float %412, %414
  call void @rlVertex3f(float noundef %407, float noundef %411, float noundef %415)
  %416 = load float, ptr %13, align 4
  %417 = load float, ptr %10, align 4
  %418 = fdiv float %417, 2.000000e+00
  %419 = fsub float %416, %418
  %420 = load float, ptr %14, align 4
  %421 = load float, ptr %11, align 4
  %422 = fdiv float %421, 2.000000e+00
  %423 = fadd float %420, %422
  %424 = load float, ptr %15, align 4
  %425 = load float, ptr %12, align 4
  %426 = fdiv float %425, 2.000000e+00
  %427 = fsub float %424, %426
  call void @rlVertex3f(float noundef %419, float noundef %423, float noundef %427)
  %428 = load float, ptr %13, align 4
  %429 = load float, ptr %10, align 4
  %430 = fdiv float %429, 2.000000e+00
  %431 = fsub float %428, %430
  %432 = load float, ptr %14, align 4
  %433 = load float, ptr %11, align 4
  %434 = fdiv float %433, 2.000000e+00
  %435 = fsub float %432, %434
  %436 = load float, ptr %15, align 4
  %437 = load float, ptr %12, align 4
  %438 = fdiv float %437, 2.000000e+00
  %439 = fadd float %436, %438
  call void @rlVertex3f(float noundef %431, float noundef %435, float noundef %439)
  %440 = load float, ptr %13, align 4
  %441 = load float, ptr %10, align 4
  %442 = fdiv float %441, 2.000000e+00
  %443 = fsub float %440, %442
  %444 = load float, ptr %14, align 4
  %445 = load float, ptr %11, align 4
  %446 = fdiv float %445, 2.000000e+00
  %447 = fadd float %444, %446
  %448 = load float, ptr %15, align 4
  %449 = load float, ptr %12, align 4
  %450 = fdiv float %449, 2.000000e+00
  %451 = fadd float %448, %450
  call void @rlVertex3f(float noundef %443, float noundef %447, float noundef %451)
  %452 = load float, ptr %13, align 4
  %453 = load float, ptr %10, align 4
  %454 = fdiv float %453, 2.000000e+00
  %455 = fsub float %452, %454
  %456 = load float, ptr %14, align 4
  %457 = load float, ptr %11, align 4
  %458 = fdiv float %457, 2.000000e+00
  %459 = fsub float %456, %458
  %460 = load float, ptr %15, align 4
  %461 = load float, ptr %12, align 4
  %462 = fdiv float %461, 2.000000e+00
  %463 = fsub float %460, %462
  call void @rlVertex3f(float noundef %455, float noundef %459, float noundef %463)
  call void @rlEnd()
  call void @rlPopMatrix()
  call void @llvm.lifetime.end.p0(i64 4, ptr %15) #16
  call void @llvm.lifetime.end.p0(i64 4, ptr %14) #16
  call void @llvm.lifetime.end.p0(i64 4, ptr %13) #16
  ret void
}