; Function Attrs: nounwind uwtable
define void @DrawCube(<2 x float> %0, float %1, float noundef %2, float noundef %3, float noundef %4, i32 %5) local_unnamed_addr #25 {
  %.sroa.0.0.extract.trunc = trunc i32 %5 to i8
  %.sroa.2.0.extract.shift = lshr i32 %5, 8
  %.sroa.2.0.extract.trunc = trunc i32 %.sroa.2.0.extract.shift to i8
  %.sroa.3.0.extract.shift = lshr i32 %5, 16
  %.sroa.3.0.extract.trunc = trunc i32 %.sroa.3.0.extract.shift to i8
  %.sroa.4.0.extract.shift = lshr i32 %5, 24
  %.sroa.4.0.extract.trunc = trunc nuw i32 %.sroa.4.0.extract.shift to i8
  tail call void @rlPushMatrix() #57
  %.sroa.0218.0.vec.extract = extractelement <2 x float> %0, i64 0
  %.sroa.0218.4.vec.extract = extractelement <2 x float> %0, i64 1
  tail call void @rlTranslatef(float noundef %.sroa.0218.0.vec.extract, float noundef %.sroa.0218.4.vec.extract, float noundef %1) #57
  tail call void @rlBegin(i32 noundef 4) #57
  tail call void @rlColor4ub(i8 noundef zeroext %.sroa.0.0.extract.trunc, i8 noundef zeroext %.sroa.2.0.extract.trunc, i8 noundef zeroext %.sroa.3.0.extract.trunc, i8 noundef zeroext %.sroa.4.0.extract.trunc) #57
  tail call void @rlNormal3f(float noundef 0.000000e+00, float noundef 0.000000e+00, float noundef 1.000000e+00) #57
  %7 = fmul float %2, 5.000000e-01
  %8 = fsub float 0.000000e+00, %7
  %9 = fmul float %3, 5.000000e-01
  %10 = fsub float 0.000000e+00, %9
  %11 = fmul float %4, 5.000000e-01
  %12 = fadd float %11, 0.000000e+00
  tail call void @rlVertex3f(float noundef %8, float noundef %10, float noundef %12) #57
  %13 = fadd float %7, 0.000000e+00
  tail call void @rlVertex3f(float noundef %13, float noundef %10, float noundef %12) #57
  %14 = fadd float %9, 0.000000e+00
  tail call void @rlVertex3f(float noundef %8, float noundef %14, float noundef %12) #57
  tail call void @rlVertex3f(float noundef %13, float noundef %14, float noundef %12) #57
  tail call void @rlVertex3f(float noundef %8, float noundef %14, float noundef %12) #57
  tail call void @rlVertex3f(float noundef %13, float noundef %10, float noundef %12) #57
  tail call void @rlNormal3f(float noundef 0.000000e+00, float noundef 0.000000e+00, float noundef -1.000000e+00) #57
  %15 = fsub float 0.000000e+00, %11
  tail call void @rlVertex3f(float noundef %8, float noundef %10, float noundef %15) #57
  tail call void @rlVertex3f(float noundef %8, float noundef %14, float noundef %15) #57
  tail call void @rlVertex3f(float noundef %13, float noundef %10, float noundef %15) #57
  tail call void @rlVertex3f(float noundef %13, float noundef %14, float noundef %15) #57
  tail call void @rlVertex3f(float noundef %13, float noundef %10, float noundef %15) #57
  tail call void @rlVertex3f(float noundef %8, float noundef %14, float noundef %15) #57
  tail call void @rlNormal3f(float noundef 0.000000e+00, float noundef 1.000000e+00, float noundef 0.000000e+00) #57
  tail call void @rlVertex3f(float noundef %8, float noundef %14, float noundef %15) #57
  tail call void @rlVertex3f(float noundef %8, float noundef %14, float noundef %12) #57
  tail call void @rlVertex3f(float noundef %13, float noundef %14, float noundef %12) #57
  tail call void @rlVertex3f(float noundef %13, float noundef %14, float noundef %15) #57
  tail call void @rlVertex3f(float noundef %8, float noundef %14, float noundef %15) #57
  tail call void @rlVertex3f(float noundef %13, float noundef %14, float noundef %12) #57
  tail call void @rlNormal3f(float noundef 0.000000e+00, float noundef -1.000000e+00, float noundef 0.000000e+00) #57
  tail call void @rlVertex3f(float noundef %8, float noundef %10, float noundef %15) #57
  tail call void @rlVertex3f(float noundef %13, float noundef %10, float noundef %12) #57
  tail call void @rlVertex3f(float noundef %8, float noundef %10, float noundef %12) #57
  tail call void @rlVertex3f(float noundef %13, float noundef %10, float noundef %15) #57
  tail call void @rlVertex3f(float noundef %13, float noundef %10, float noundef %12) #57
  tail call void @rlVertex3f(float noundef %8, float noundef %10, float noundef %15) #57
  tail call void @rlNormal3f(float noundef 1.000000e+00, float noundef 0.000000e+00, float noundef 0.000000e+00) #57
  tail call void @rlVertex3f(float noundef %13, float noundef %10, float noundef %15) #57
  tail call void @rlVertex3f(float noundef %13, float noundef %14, float noundef %15) #57
  tail call void @rlVertex3f(float noundef %13, float noundef %14, float noundef %12) #57
  tail call void @rlVertex3f(float noundef %13, float noundef %10, float noundef %12) #57
  tail call void @rlVertex3f(float noundef %13, float noundef %10, float noundef %15) #57
  tail call void @rlVertex3f(float noundef %13, float noundef %14, float noundef %12) #57
  tail call void @rlNormal3f(float noundef -1.000000e+00, float noundef 0.000000e+00, float noundef 0.000000e+00) #57
  tail call void @rlVertex3f(float noundef %8, float noundef %10, float noundef %15) #57
  tail call void @rlVertex3f(float noundef %8, float noundef %14, float noundef %12) #57
  tail call void @rlVertex3f(float noundef %8, float noundef %14, float noundef %15) #57
  tail call void @rlVertex3f(float noundef %8, float noundef %10, float noundef %12) #57
  tail call void @rlVertex3f(float noundef %8, float noundef %14, float noundef %12) #57
  tail call void @rlVertex3f(float noundef %8, float noundef %10, float noundef %15) #57
  tail call void @rlEnd() #57
  tail call void @rlPopMatrix() #57
  ret void
}